; ModuleID = '45/546.c'
source_filename = "45/546.c"
target datalayout = "e-m:e-p270:32:32-p271:32:32-p272:64:64-i64:64-f80:128-n8:16:32:64-S128"
target triple = "x86_64-pc-linux-gnu"

@.str = private unnamed_addr constant [3 x i8] c"%d\00", align 1

; Function Attrs: noinline nounwind uwtable
define dso_local i32 @main() #0 {
  %1 = alloca i32, align 4
  %2 = alloca [100 x i8], align 16
  %3 = alloca i8*, align 8
  %4 = alloca i8*, align 8
  %5 = alloca i8*, align 8
  %6 = alloca i32, align 4
  %7 = alloca i32, align 4
  store i32 0, i32* %1, align 4
  store i32 0, i32* %7, align 4
  %8 = getelementptr inbounds [100 x i8], [100 x i8]* %2, i64 0, i64 0
  %9 = call i32 (i8*, ...) bitcast (i32 (...)* @gets to i32 (i8*, ...)*)(i8* %8)
  %10 = getelementptr inbounds [100 x i8], [100 x i8]* %2, i64 0, i64 0
  store i8* %10, i8** %3, align 8
  br label %11

11:                                               ; preds = %17, %0
  %12 = load i8*, i8** %3, align 8
  %13 = load i8, i8* %12, align 1
  %14 = sext i8 %13 to i32
  %15 = icmp ne i32 %14, 32
  br i1 %15, label %16, label %20

16:                                               ; preds = %11
  br label %17

17:                                               ; preds = %16
  %18 = load i8*, i8** %3, align 8
  %19 = getelementptr inbounds i8, i8* %18, i32 1
  store i8* %19, i8** %3, align 8
  br label %11

20:                                               ; preds = %11
  %21 = load i8*, i8** %3, align 8
  %22 = getelementptr inbounds i8, i8* %21, i64 1
  store i8* %22, i8** %4, align 8
  %23 = load i8*, i8** %3, align 8
  store i8 0, i8* %23, align 1
  %24 = getelementptr inbounds [100 x i8], [100 x i8]* %2, i64 0, i64 0
  store i8* %24, i8** %3, align 8
  store i32 0, i32* %6, align 4
  br label %25

25:                                               ; preds = %66, %20
  %26 = load i32, i32* %7, align 4
  %27 = icmp slt i32 %26, 1
  br i1 %27, label %28, label %71

28:                                               ; preds = %25
  %29 = getelementptr inbounds [100 x i8], [100 x i8]* %2, i64 0, i64 0
  store i8* %29, i8** %3, align 8
  %30 = load i8*, i8** %4, align 8
  store i8* %30, i8** %5, align 8
  %31 = load i8*, i8** %5, align 8
  %32 = load i8, i8* %31, align 1
  %33 = sext i8 %32 to i32
  %34 = load i8*, i8** %3, align 8
  %35 = load i8, i8* %34, align 1
  %36 = sext i8 %35 to i32
  %37 = icmp eq i32 %33, %36
  br i1 %37, label %38, label %65

38:                                               ; preds = %28
  br label %39

39:                                               ; preds = %59, %38
  %40 = load i8*, i8** %3, align 8
  %41 = load i8, i8* %40, align 1
  %42 = sext i8 %41 to i32
  %43 = icmp ne i32 %42, 0
  br i1 %43, label %44, label %64

44:                                               ; preds = %39
  %45 = load i8*, i8** %3, align 8
  %46 = load i8, i8* %45, align 1
  %47 = sext i8 %46 to i32
  %48 = load i8*, i8** %5, align 8
  %49 = load i8, i8* %48, align 1
  %50 = sext i8 %49 to i32
  %51 = icmp eq i32 %47, %50
  br i1 %51, label %52, label %55

52:                                               ; preds = %44
  %53 = load i32, i32* %7, align 4
  %54 = add nsw i32 %53, 1
  store i32 %54, i32* %7, align 4
  br label %58

55:                                               ; preds = %44
  %56 = load i32, i32* %7, align 4
  %57 = mul nsw i32 %56, 0
  store i32 %57, i32* %7, align 4
  br label %64

58:                                               ; preds = %52
  br label %59

59:                                               ; preds = %58
  %60 = load i8*, i8** %5, align 8
  %61 = getelementptr inbounds i8, i8* %60, i32 1
  store i8* %61, i8** %5, align 8
  %62 = load i8*, i8** %3, align 8
  %63 = getelementptr inbounds i8, i8* %62, i32 1
  store i8* %63, i8** %3, align 8
  br label %39

64:                                               ; preds = %55, %39
  br label %65

65:                                               ; preds = %64, %28
  br label %66

66:                                               ; preds = %65
  %67 = load i8*, i8** %4, align 8
  %68 = getelementptr inbounds i8, i8* %67, i32 1
  store i8* %68, i8** %4, align 8
  %69 = load i32, i32* %6, align 4
  %70 = add nsw i32 %69, 1
  store i32 %70, i32* %6, align 4
  br label %25

71:                                               ; preds = %25
  %72 = load i32, i32* %7, align 4
  %73 = icmp ne i32 %72, 0
  br i1 %73, label %74, label %78

74:                                               ; preds = %71
  %75 = load i32, i32* %6, align 4
  %76 = sub nsw i32 %75, 1
  %77 = call i32 (i8*, ...) @printf(i8* getelementptr inbounds ([3 x i8], [3 x i8]* @.str, i64 0, i64 0), i32 %76)
  br label %78

78:                                               ; preds = %74, %71
  %79 = load i32, i32* %1, align 4
  ret i32 %79
}

declare dso_local i32 @gets(...) #1

declare dso_local i32 @printf(i8*, ...) #1


!llvm.module.flags = !{!0}
!llvm.ident = !{!1}

!0 = !{i32 1, !"wchar_size", i32 4}
!1 = !{!"clang version 10.0.0-4ubuntu1 "}
